target datalayout = "e-m:e-p270:32:32-p271:32:32-p272:64:64-i64:64-i128:128-f80:128-n8:16:32:64-S128"
target triple = "x86_64-pc-linux-gnu"

%"struct.folly::operator_new_fn" = type { i8 }
%"struct.folly::detail::op_new_builtin_fn_" = type { i8 }
%"class.folly::exception_shared_string" = type { i64 }
%"struct.folly::exception_shared_string::state" = type { %"struct.std::atomic.1", i64 }
%"struct.std::atomic.1" = type { %"struct.std::__atomic_base.2" }
%"struct.std::__atomic_base.2" = type { i64 }

@_ZN5folly12operator_newE = linkonce_odr constant %"struct.folly::operator_new_fn" undef, comdat, align 1
@_ZN5folly6detail7op_new_ILb1ELb1EEE = linkonce_odr constant %"struct.folly::detail::op_new_builtin_fn_" zeroinitializer, comdat, align 1

; Function Attrs: mustprogress nounwind uwtable
define linkonce_odr void @_ZNSt13__atomic_baseImEC2Em(ptr noundef nonnull align 8 dereferenceable(8) %0, i64 noundef %1) unnamed_addr #0 comdat align 2 {
  %3 = alloca ptr, align 8
  %4 = alloca i64, align 8
  store ptr %0, ptr %3, align 8, !tbaa !106
  store i64 %1, ptr %4, align 8, !tbaa !46
  %5 = load ptr, ptr %3, align 8
  %6 = getelementptr inbounds nuw %"struct.std::__atomic_base.2", ptr %5, i32 0, i32 0
  %7 = load i64, ptr %4, align 8, !tbaa !46
  store i64 %7, ptr %6, align 8, !tbaa !108
  ret void
}

; Function Attrs: mustprogress nounwind uwtable
define linkonce_odr void @_ZNSt6atomicImEC2Em(ptr noundef nonnull align 8 dereferenceable(8) %0, i64 noundef %1) unnamed_addr #0 comdat align 2 {
  %3 = alloca ptr, align 8
  %4 = alloca i64, align 8
  store ptr %0, ptr %3, align 8, !tbaa !104
  store i64 %1, ptr %4, align 8, !tbaa !46
  %5 = load ptr, ptr %3, align 8
  %6 = load i64, ptr %4, align 8, !tbaa !46
  call void @_ZNSt13__atomic_baseImEC2Em(ptr noundef nonnull align 8 dereferenceable(8) %5, i64 noundef %6) #20
  ret void
}

; Function Attrs: alwaysinline mustprogress uwtable
define linkonce_odr hidden noundef ptr @_ZNK5folly6detail18op_new_builtin_fn_clIJRKmRKSt11align_val_tEEEDTclL_Z22__builtin_operator_newEspscT_fp_EEDpOS8_(ptr noundef nonnull align 1 dereferenceable(1) %0, ptr noundef nonnull align 8 dereferenceable(8) %1, ptr noundef nonnull align 8 dereferenceable(8) %2) #11 comdat align 2 {
  %4 = alloca ptr, align 8
  %5 = alloca ptr, align 8
  %6 = alloca ptr, align 8
  store ptr %0, ptr %4, align 8, !tbaa !100
  store ptr %1, ptr %5, align 8, !tbaa !102
  store ptr %2, ptr %6, align 8, !tbaa !30
  %7 = load ptr, ptr %5, align 8, !tbaa !102
  %8 = load i64, ptr %7, align 8, !tbaa !46
  %9 = load ptr, ptr %6, align 8, !tbaa !30
  %10 = load i64, ptr %9, align 8, !tbaa !88
  %11 = call noalias noundef nonnull ptr @_ZnwmSt11align_val_t(i64 noundef %8, i64 noundef %10) #23
  call void @llvm.assume(i1 true) [ "align"(ptr %11, i64 %10) ]
  ret ptr %11
}

; Function Attrs: mustprogress uwtable
define linkonce_odr void @_ZN5folly23exception_shared_string5stateC2EmRFvPvPcmES2_(ptr noundef nonnull align 8 dereferenceable(16) %0, i64 noundef %1, ptr noundef nonnull %2, ptr noundef %3) unnamed_addr #15 comdat align 2 {
  %5 = alloca ptr, align 8
  %6 = alloca i64, align 8
  %7 = alloca ptr, align 8
  %8 = alloca ptr, align 8
  %9 = alloca ptr, align 8
  store ptr %0, ptr %5, align 8, !tbaa !92
  store i64 %1, ptr %6, align 8, !tbaa !46
  store ptr %2, ptr %7, align 8, !tbaa !30
  store ptr %3, ptr %8, align 8, !tbaa !30
  %10 = load ptr, ptr %5, align 8
  %11 = getelementptr inbounds nuw %"struct.folly::exception_shared_string::state", ptr %10, i32 0, i32 0
  call void @_ZNSt6atomicImEC2Em(ptr noundef nonnull align 8 dereferenceable(8) %11, i64 noundef 0) #20
  %12 = getelementptr inbounds nuw %"struct.folly::exception_shared_string::state", ptr %10, i32 0, i32 1
  %13 = load i64, ptr %6, align 8, !tbaa !46
  store i64 %13, ptr %12, align 8, !tbaa !94
  call void @llvm.lifetime.start.p0(i64 8, ptr %9) #20
  %14 = getelementptr inbounds nuw %"struct.folly::exception_shared_string::state", ptr %10, i64 1
  store ptr %14, ptr %9, align 8, !tbaa !98
  %15 = load ptr, ptr %7, align 8, !tbaa !30
  %16 = load ptr, ptr %8, align 8, !tbaa !30
  %17 = load ptr, ptr %9, align 8, !tbaa !98
  %18 = load i64, ptr %6, align 8, !tbaa !46
  call void %15(ptr noundef %16, ptr noundef %17, i64 noundef %18)
  %19 = load ptr, ptr %9, align 8, !tbaa !98
  %20 = load i64, ptr %6, align 8, !tbaa !46
  %21 = getelementptr inbounds nuw i8, ptr %19, i64 %20
  store i8 0, ptr %21, align 1, !tbaa !99
  call void @llvm.lifetime.end.p0(i64 8, ptr %9) #20
  ret void
}

; Function Attrs: alwaysinline mustprogress uwtable
define linkonce_odr hidden noundef ptr @_ZNK5folly15operator_new_fnclEmSt11align_val_t(ptr noundef nonnull align 1 dereferenceable(1) %0, i64 noundef %1, i64 noundef %2) #11 comdat align 2 {
  %4 = alloca ptr, align 8
  %5 = alloca i64, align 8
  %6 = alloca i64, align 8
  store ptr %0, ptr %4, align 8, !tbaa !90
  store i64 %1, ptr %5, align 8, !tbaa !46
  store i64 %2, ptr %6, align 8, !tbaa !88
  %7 = call noundef ptr @_ZNK5folly6detail18op_new_builtin_fn_clIJRKmRKSt11align_val_tEEEDTclL_Z22__builtin_operator_newEspscT_fp_EEDpOS8_(ptr noundef nonnull align 1 dereferenceable(1) @_ZN5folly6detail7op_new_ILb1ELb1EEE, ptr noundef nonnull align 8 dereferenceable(8) %5, ptr noundef nonnull align 8 dereferenceable(8) %6)
  ret ptr %7
}

; Function Attrs: mustprogress nounwind uwtable
define linkonce_odr noundef i64 @_ZN5folly23exception_shared_string5state11object_sizeEm(i64 noundef %0) #0 comdat align 2 {
  %2 = alloca i64, align 8
  store i64 %0, ptr %2, align 8, !tbaa !46
  %3 = load i64, ptr %2, align 8, !tbaa !46
  %4 = add i64 16, %3
  %5 = add i64 %4, 1
  ret i64 %5
}

; Function Attrs: mustprogress uwtable
define linkonce_odr noundef ptr @_ZN5folly23exception_shared_string5state4makeEmRFvPvPcmES2_(i64 noundef %0, ptr noundef nonnull %1, ptr noundef %2) #15 comdat align 2 {
  %4 = alloca i64, align 8
  %5 = alloca ptr, align 8
  %6 = alloca ptr, align 8
  %7 = alloca i64, align 8
  %8 = alloca ptr, align 8
  store i64 %0, ptr %4, align 8, !tbaa !46
  store ptr %1, ptr %5, align 8, !tbaa !30
  store ptr %2, ptr %6, align 8, !tbaa !30
  call void @llvm.lifetime.start.p0(i64 8, ptr %7) #20
  store i64 8, ptr %7, align 8, !tbaa !88
  call void @llvm.lifetime.start.p0(i64 8, ptr %8) #20
  %9 = load i64, ptr %4, align 8, !tbaa !46
  %10 = call noundef i64 @_ZN5folly23exception_shared_string5state11object_sizeEm(i64 noundef %9) #20
  %11 = call noundef ptr @_ZNK5folly15operator_new_fnclEmSt11align_val_t(ptr noundef nonnull align 1 dereferenceable(1) @_ZN5folly12operator_newE, i64 noundef %10, i64 noundef 8)
  store ptr %11, ptr %8, align 8, !tbaa !30
  %12 = load ptr, ptr %8, align 8, !tbaa !30
  %13 = load i64, ptr %4, align 8, !tbaa !46
  %14 = load ptr, ptr %5, align 8, !tbaa !30
  %15 = load ptr, ptr %6, align 8, !tbaa !30
  call void @_ZN5folly23exception_shared_string5stateC2EmRFvPvPcmES2_(ptr noundef nonnull align 8 dereferenceable(16) %12, i64 noundef %13, ptr noundef nonnull %14, ptr noundef %15)
  call void @llvm.lifetime.end.p0(i64 8, ptr %8) #20
  call void @llvm.lifetime.end.p0(i64 8, ptr %7) #20
  ret ptr %12
}

; Function Attrs: mustprogress uwtable
define void @_ZN5folly23exception_shared_stringC2EmRFvPvPcmES1_(ptr noundef nonnull align 8 dereferenceable(8) %0, i64 noundef %1, ptr noundef nonnull %2, ptr noundef %3) unnamed_addr #15 align 2 {
  %5 = alloca ptr, align 8
  %6 = alloca i64, align 8
  %7 = alloca ptr, align 8
  %8 = alloca ptr, align 8
  store ptr %0, ptr %5, align 8, !tbaa !84
  store i64 %1, ptr %6, align 8, !tbaa !46
  store ptr %2, ptr %7, align 8, !tbaa !30
  store ptr %3, ptr %8, align 8, !tbaa !30
  %9 = load ptr, ptr %5, align 8
  %10 = getelementptr inbounds nuw %"class.folly::exception_shared_string", ptr %9, i32 0, i32 0
  %11 = load i64, ptr %6, align 8, !tbaa !46
  %12 = load ptr, ptr %7, align 8, !tbaa !30
  %13 = load ptr, ptr %8, align 8, !tbaa !30
  %14 = call noundef ptr @_ZN5folly23exception_shared_string5state4makeEmRFvPvPcmES2_(i64 noundef %11, ptr noundef nonnull %12, ptr noundef %13)
  %15 = ptrtoint ptr %14 to i64
  store i64 %15, ptr %10, align 8, !tbaa !86
  ret void
}