; Function Attrs: mustprogress uwtable
define void @_ZN5folly23exception_shared_stringC2EmRFvPvPcmES1_(ptr noundef nonnull writeonly align 8 captures(none) dereferenceable(8) initializes((0, 8)) %0, i64 noundef %1, ptr noundef nonnull readonly captures(none) %2, ptr noundef %3) unnamed_addr #13 align 2 {
  %5 = add i64 %1, 17
  %6 = tail call noalias noundef nonnull align 8 ptr @_ZnwmSt11align_val_t(i64 noundef %5, i64 noundef 8) #24
  call void @llvm.assume(i1 true) [ "align"(ptr %6, i64 8) ]
  store i64 0, ptr %6, align 8, !tbaa !43
  %7 = getelementptr inbounds nuw i8, ptr %6, i64 8
  store i64 %1, ptr %7, align 8, !tbaa !45
  %8 = getelementptr inbounds nuw i8, ptr %6, i64 16
  tail call void %2(ptr noundef %3, ptr noundef nonnull %8, i64 noundef %1)
  %9 = getelementptr inbounds nuw i8, ptr %8, i64 %1
  store i8 0, ptr %9, align 1, !tbaa !48
  %10 = ptrtoint ptr %6 to i64
  store i64 %10, ptr %0, align 8, !tbaa !49
  ret void
}